(dp1
S'output'
p2
S'missing "pass" in view'
p3
sS'layer'
p4
S'ParserContainer'
p5
sS'code'
p6
S'response.write(\'<!DOCTYPE html>\\n<!--[if lt IE 7]>      <html class="no-js lt-ie9 lt-ie8 lt-ie7"> <![endif]-->\\n<!--[if IE 7]>         <html class="no-js lt-ie9 lt-ie8"> <![endif]-->\\n<!--[if IE 8]>         <html class="no-js lt-ie9"> <![endif]-->\\n<!--[if gt IE 8]><!-->\\n<html class="no-js" lang="en" xmlns=\', escape=False)\nresponse.write(URL(\'static\',\'www.w3.org/1999/xhtml/index.html\'))\nresponse.write(\'>\\n<!--<![endif]-->\\n\', escape=False)\nimport mysql.connector\ncnx = mysql.connector.connect(user=\'root\', password=\'hades2525\',\nhost=\'localhost\',\ndatabase=\'employees\')\ncursor = cnx.cursor()\nquery = ("select passenger_firstname from passenger")\ncursor.execute(query)\nfor (passenger_firstname) in cursor:\n    print("{}, {} was hired ".format(passenger_firstname))\n    response.write(\'\\n\\n<!-- Mirrored from cruiseweb.com/ by HTTrack Website Copier/3.x [XR&CO\\\'2014], Mon, 08 May 2017 12:21:25 GMT -->\\n<!-- Added by HTTrack --><meta http-equiv="content-type" content="text/html;charset=utf-8" /><!-- /Added by HTTrack -->\\n<head id="Head1"><meta charset="utf-8" /><meta http-equiv="X-UA-Compatible" content="IE=edge,chrome=1" /><meta name="viewport" content="width=device-width, initial-scale=1, maximum-scale=1, user-scalable=no" /><link rel="shortcut icon" href="faviconc619.ico?v=1.0" type="image/x-icon" /><link rel="stylesheet" href=\', escape=False)\n    response.write(URL(\'static\',\'css/bootstrap.min.css\'))\n    response.write(\' /><link rel="stylesheet" href=\', escape=False)\n    response.write(URL(\'static\',\'css/bootstrap-responsive.min.css\'))\n    response.write(\' /><link rel="stylesheet" href=\', escape=False)\n    response.write(URL(\'static\',\'css/bootstrap-modal.css\'))\n    response.write(\' /><link rel="stylesheet" href=\', escape=False)\n    response.write(URL(\'static\',\'css/bootstrap-select.min.css\'))\n    response.write(\' /><link rel="stylesheet" href="http://cruiseweb.com/css/pretty-checkable.css" /><link rel="stylesheet" href="http://cruiseweb.com/css/flexslider.css" /><link rel="stylesheet" href="http://cruiseweb.com/css/bootstrap-multiselect.css" type="text/css" /><link rel="stylesheet" href="http://cruiseweb.com/css/main.css" />\\n    <!-- Typekit -->\\n    <script type="text/javascript" src="http://cruiseweb.com/js/vendor/fvx8xua.js"></script><script type="text/javascript">try { Typekit.load(); } catch (e) { }</script><script src="https://ajax.googleapis.com/ajax/libs/jquery/1.12.4/jquery.min.js"></script> <script src="http://cruiseweb.com/js/vendor/jquery-migrate-1.2.1.min.js"></script>\\n\\t  <!-- Eloqua Tracking Script12 for personalquote,modal-emaildeal,modal-checkavailibilty.aspx-->\\n     <script src="https://cdnjs.cloudflare.com/ajax/libs/jquery-validate/1.15.0/jquery.validate.min.js"></script><script src="https://cdnjs.cloudflare.com/ajax/libs/jquery-validate/1.15.0/additional-methods.min.js"></script>\\n    <!--End Eloqua Tracking Script -->\\n        <script type="text/javascript">\\n\\t\\t\\tfunction PushFavoritesToEloque(result) {\\n            if (result.elqFormName) $("[name=elqFormName]").val(result.elqFormName);\\n            if (result.elqSiteID) $("[name=elqSiteID]").val(result.elqSiteID);\\n            if (result.favoriteID) $("[name=favoriteID]").val(result.favoriteID);\\n            if (result.pageName) $("[name=pageName]").val(result.pageName);\\n            if (result.pagePath) $("[name=pagePath]").val(result.pagePath);\\n            if (result.addedDate) $("[name=addedDate]").val(result.addedDate);\\n            if (result.removedFlag) $("[name=removedFlag]").val(result.removedFlag);\\n            if (result.emailAddress) $("[name=EmailAddress]").val(result.emailAddress);\\n            var formtag = $(\\\'form[name="cruiseFavoritesBackend"]\\\').serialize();\\n            $(\\\'form#cruiseFavoritesBackend\\\').submit();\\n        }\\n        </script>\\n\\t\\t<script>document.domain = \\\'cruiseweb.com\\\';</script>\\n\\t\\t <script type="text/javascript">\\n         var _elqQ = _elqQ || [];\\n         _elqQ.push([\\\'elqSetSiteId\\\', \\\'179671029\\\']);\\n         _elqQ.push([\\\'elqTrackPageView\\\']);\\n         (function () {\\n             function async_load() {\\n                 var s = document.createElement(\\\'script\\\');\\n                 s.type = \\\'text/javascript\\\';\\n                 s.async = true;\\n                 s.src = \\\'http://img.en25.com/i/elqCfg.min.js\\\';\\n                 var x = document.getElementsByTagName(\\\'script\\\')[0];\\n                 x.parentNode.insertBefore(s, x);\\n             } if (window.addEventListener) window.addEventListener(\\\'DOMContentLoaded\\\', async_load, false);\\n             else if (window.attachEvent) window.attachEvent(\\\'onload\\\', async_load);\\n         })(); </script> \\n<script type="text/javascript" src="http://cruiseweb.com/js/vendor/modernizr-2.6.2-respond-1.1.0.min.js"></script><script type="text/javascript" src="https://ajax.googleapis.com/ajax/libs/jquery/1.12.4/jquery.min.js"></script><script type="text/javascript" src="http://cruiseweb.com/js/vendor/bootstrap.min.js"></script><script type="text/javascript" src="http://cruiseweb.com/js/vendor/jquery-pretty-checkable.js"></script><script type="text/javascript" src="https://cdnjs.cloudflare.com/ajax/libs/bootstrap-hover-dropdown/2.2.1/bootstrap-hover-dropdown.js"></script><script type="text/javascript" src="https://cdnjs.cloudflare.com/ajax/libs/bootstrap-modal/2.2.6/js/bootstrap-modal.js"></script><script type="text/javascript" src="https://cdnjs.cloudflare.com/ajax/libs/bootstrap-modal/2.2.6/js/bootstrap-modalmanager.min.js"></script><script type="text/javascript" src="https://cdnjs.cloudflare.com/ajax/libs/bootstrap-multiselect/0.9.13/js/bootstrap-multiselect.min.js"></script><script type="text/javascript" src="https://cdnjs.cloudflare.com/ajax/libs/bootstrap-select/1.11.2/js/bootstrap-select.min.js"></script><script type="text/javascript" src="https://cdnjs.cloudflare.com/ajax/libs/jquery.lazyload/1.9.1/jquery.lazyload.min.js"></script><script type="text/javascript" src="https://cdnjs.cloudflare.com/ajax/libs/flexslider/2.6.1/jquery.flexslider-min.js"></script><script type="text/javascript" src="https://cdnjs.cloudflare.com/ajax/libs/smoothscroll/1.4.4/SmoothScroll.min.js"></script><script type="text/javascript" src="http://cruiseweb.com/js/vendor/jquery.animate-enhanced.min.js"></script><script type="text/javascript" src="http://cruiseweb.com/js/vendor/jquery.cookie.js"></script><script type="text/javascript" src="http://cruiseweb.com/js/vendor/titlecase.js"></script><script type="text/javascript" src="http://cruiseweb.com/js/vendor/jquery.blockUI.js"></script><script type="text/javascript" src="http://cruiseweb.com/js/main.js"></script><meta name="description" content="Looking for a cruise deal on the cruise vacation? Browse the best cruise deals or speak with our cruise travel agents today for even better options." /><meta name="keywords" content="Test" /><title>\\n\\tBest Cruise Deals, Best Cruise Travel Agents | The Cruise Web\\n</title></head>\\n<body>\\n    <input name="ctl00$hdCount" type="hidden" id="hdCount" value="4000" /><iframe width="0" height="0" border="0" name="dummyframe" style="display: none;" id="dummyframe"></iframe>\\n    <form id="cruiseFavoritesBackend" style="display:block" class="favoriteForm" target="dummyframe" method="post" name="cruiseFavoritesBackend" action="https://s179671029.t.eloqua.com/e/f2">\\n        <input type="hidden" name="elqFormName" value="cruiseFavoritesBackend" /><input type="hidden" name="elqSiteID" value="179671029" /><input type="hidden" id="favoriteID" name="favoriteID" value="" /><input type="hidden" id="pageName" name="pageName" value="" />\\n        <input type="hidden" id="pagePath" name="pagePath" value="" /><input type="hidden" id="addedDate" name="addedDate" value="" /><input type="hidden" id="removedFlag" name="removedFlag" value="" /><input id="EmailAddress" name="EmailAddress" type="hidden" value="" />\\n        <button type="button" id="submitbtn" name="submitbtn" style="display:none" ></button></form>\\n    <form name="form1" method="post" action="http://cruiseweb.com/" id="form1">\\n<div>\\n<input type="hidden" name="__EVENTTARGET" id="__EVENTTARGET" value="" />\\n<input type="hidden" name="__EVENTARGUMENT" id="__EVENTARGUMENT" value="" />\\n<input type="hidden" name="__VSTATE" id="__VSTATE" value="H4sIAAAAAAAEANVaS3McNRAmW5iQQDDP8A4Kr3UojzfEebgc21W2cQhgJ66YR3GitDPaWcUazZSk8bL5A1y48Tf4E/ADuPIXuHPjAq3HrGfXu/Y81gQOXmta0qdutbrVkvrvM7PB7Mx579ri0tWrN24tLc0GFxsd/dNowO9G4+zsxcalGan6jMycC6hMGO4v3w4aTwP9nSdmLmQkHnMC5HOWnG95fnzLZzXwOco5EV0VsZnfn1phFK2tYNQVpLPaVSpZbrV8kVJJeqS94MdRKyCYyVaHYJUKEni20jPUtRUahUgKf7U5tisOIspbNMIhkQbHx4qEsehbGs5o2Hx+vPAwCZtIUcXIavMTqGqi1tpKsrYilYh5uIbuOCbQphkG6TYSoZWWa7DSgsYtDH+MrhWV7PQEunaiQFaAdh8KUlGOFY35f1eexeLyOAVtU06mKQ/8JljATIXTlex6GU1pDmAVot1YqEnCBY0L2gLPzPxR2MIYlsoDplNFTtHIbpwo6TbwgXYMH1O1s27MaID7pyjbzRNlu2t5mKpcEWVUYXGagt06UbAdx8RUJetgkO005Vo62eMbFgpJFTSesyb329kTZBu4WtlK4iRlWByKBf9bHB8MtfIiwlPPcKwZzvjdtX3zvlta/pHZulebCQ4C8FVeO1YqjpbR9eT7282BcOP6HxWtsChOTRj8yD7Wk7huStWBJLUw8L8ySBt3cYSlxtmwxepQRERpYFjasMXKUD4WtN0mmGuwzeyjMlwX9zClGuuuKVUGikhAFRECc8fbTp5QGZbDRtUlgnskFXFCNPA9R0JbhlQZOsEclAoTyjHTuLvmG23q7wwUAWpRWI3xNSU9tM4G/YPGrDXsH84dy18CMh1r0W7j9kzDE406v81XtOshiHKmbYWxPEswI6ZoFAPvETh5hnlgLcpR59GOI1fBjqWKOQBLif1uKolS1l4NXUPnKirg+zghHqNgvqrvzbVxP4bjxxWPk573kAhJ+tYIEx0tmkZobsM1mkf3YCl8blpVGLkDXx7DaUBEgBnx5nS1Rw6ICBmGZXdFj3xHR3Hbg0ZozoR1W4eNKgz8EPv7MuYHlMGoHRYLav3W5zn6PLpjKyrgs1h6mIeEET29jIKg3Drr7ViidVszD1aYVVUYI6Kw9eaZ39GEOlxrjceCgSfTEkA7Cl7COCNQ8n1bMY+2s5qKI/RjsT8oZOjfQtkuJl0q6Jgs9niP9Lz1SL8+eSx3zkkyOAXJFj7ADOysBwGR6OG+sbF1Q0PfZLRCMg+jPgJ/K8ADs7TtIjWLbOloE+gufKqADhslp8Cjl6O6PdPQ8+e8CuiwTNuCqn6e8c2MWINr0ZdqwLRFtaQamCnHwnjdTVMqj9DBqhtHxuWY0uFiesEupr9KLCY4TGl37+GICOrjgWLuWjpat/SKiomkn5+8HelXnzgIPnokBIMeXUP3sop6iyj2wW9QnOf3viVV5znBKfNCnIYp5XngXaCjTy29Brqg3CdSDiE7WnVUQULClSdhe+Pwi4fgH5hKtKcr4RcfGSdovGgX4Y8zJYaM+9rKsvjZoxzcmI3kbDT4QDdAgwAbfZZvUF5EkKodp+LIStpz9HoLSVJ2oCONoaW0lxGrKybltAfbXuAJClB58K9cDXqga6qPcED3dTRqLEHa/UoTkLGD6nhH+HWwNbntUR6ALx5C/sbRji7Ll2aDi0/au/Ez7obcrNOfzq/omww36vjLCOuzzbCeTIhP9aXG4LrB+nG0iCBE0pv7Mlq8+gG63+lAjCMIQfc3NpF2pebjS5rAGQA4DIlabX7XBie73yx2GfKZvQwxJw1wKhD6ib5mzVuEgeETgnt9H2+vQiCir8RZIHAY4raWqwNSEuAtoAfIZxC8w3kFQnkimtnxpQ1haCjiFPYPw9UySgWbm44IV/RBqAVjD103naSo0UBgnLpG4wLUo6qL0gSpGF1Hdx5sbaFdIvblR1PVE2HamXpxx5P4AFa/HKOuEpw9Dj0dJ0IldeXCgzGK2tnbHEyE3mpoQNCePlklLJXoCxoAGVNm5mWquhpiyw4MEjNyVGMlWXwMSisgyxjVBeAjjXf85SzKsygTzBeRvnptatWOTHmFFyWHy/CjfrPMbbAtt025bR/9brm3F2dL+Yve4Xexy4MVZo5j5rZ4bUhMjQpcSl/QRPdo2sh/MqLdZvQUInsedOX/y9TdOG7qcsHQlKYuj/jvTt3ou980J/Hm8esvf4c3tSU4BDp+KoPGy/ra89Iz98Bph1iRrwSbaRW/ve/o818QNF4xl6eNMl3NuwF0vei6LhbvykHLvrIjv+q6e6WeHKDja67jWvGOqVQQiMAxUN/8PIKJhvgIkF53SFfLPlhA3zfK97XPEtD3Tdf3doknCY4Dyz7hoWP/LQdzrfzLBvR+u7Tm7UMGdL3kut6s9nQBCO84hKUSCN/DuuH62EGJ0LOISmOMvHQAxmWHcaPSkwYAvFt6KmScqm52MwMI7zmE4q8qFiHBPu1Q31O4S5XWyvulWQGj4BIrWE5gk4DwgUNYKIxgDqjQ80PX872xPYeOii1o3rRxyM8184smJvzUyYmZlHQzFczcHlkTM7fnHZN8UnKAiUkmx2V9TCPRY1LmxVSSLSZmP0wh4WFCBsKYw1Lp1b0TC7KwsJAL3+es2fxZyGwmvv3bh/+S8k9IANCv/7WRsiwAlwJQH8+lArg8gNp4h/kAh3eVdTFdUoDNCKiNNpwZMJQWUBt7ND1gJDegNv5QjkA+QeCoHRVOE1hnbCRvpqhBulc9DeCe5TPr+wcdbpxIlysAAA==" />\\n<input type="hidden" name="__VIEWSTATE" id="__VIEWSTATE" value="" />\\n</div>\\n\\n<script type="text/javascript">\\n//<![CDATA[\\nvar theForm = document.forms[\\\'form1\\\'];\\nif (!theForm) {\\n    theForm = document.form1;\\n}\\nfunction __doPostBack(eventTarget, eventArgument) {\\n    if (!theForm.onsubmit || (theForm.onsubmit() != false)) {\\n        theForm.__EVENTTARGET.value = eventTarget;\\n        theForm.__EVENTARGUMENT.value = eventArgument;\\n        theForm.submit();\\n    }\\n}\\n//]]>\\n</script>\\n\\n\\n<script src="http://cruiseweb.com/WebResource.axd?d=pynGkmcFUV13He1Qd6_TZG6o3HKSzPwJE7vcGQ-heYBHa_E3cQtmL8hT8HMTtem3v1d7xwd8z90bgkuslJn6nQ2&amp;t=636065041469690049" type="text/javascript"></script>\\n\\n\\n<script src="http://cruiseweb.com/ScriptResource.axd?d=D9drwtSJ4hBA6O8UhT6CQmwxSzRtvL3dvh-SVFYOeKqLNfRiv44gQRcD2FXsWCC0gt2ICRPUnyKf9K9-7rxSQl6yUAG7_Ib6Bb-4pDVcEydcO4lWrb20jDZ0oHsCtDCuV5hNDiB8FnHrpzojMCCFou0nNWOGGKG3Ur83BBCEB3I1&amp;t=4794f07b" type="text/javascript"></script>\\n<script type="text/javascript">\\n//<![CDATA[\\nif (typeof(Sys) === \\\'undefined\\\') throw new Error(\\\'ASP.NET Ajax client-side framework failed to load.\\\');\\n//]]>\\n</script>\\n\\n<script src="http://cruiseweb.com/ScriptResource.axd?d=JnUc-DEDOM5KzzVKtsL1tSn-U-hqP1KswKnTt2AgSgWk4Edvq5BnkFqfywhtjWacMB-Y1vIXtX1OSXL5uytyW7sK9jZUgUCMyu_yNwDD3zAVFJ9g6gdNIJIpsVUAC2iPtjk-O0INfVMwYq0vsTQ5rhd1DJDge9u5KVal5DFPJqtTEj4xwe4iA-OF3ST7j19j0&amp;t=4794f07b" type="text/javascript"></script><div id="backtotop" class="hidden-phone"> &nbsp; </div>\\n        <input name="ctl00$hdMasterType" type="hidden" id="hdMasterType" />\\n        <input name="ctl00$hdMasterLines" type="hidden" id="hdMasterLines" />\\n        <input name="ctl00$hdMasterDestination" type="hidden" id="hdMasterDestination" />\\n        <input name="ctl00$hdMasterDateRange" type="hidden" id="hdMasterDateRange" />\\n        <input name="ctl00$hdMasterDateRangeCriteria" type="hidden" id="hdMasterDateRangeCriteria" />\\n        <input name="ctl00$hdMasterDealDateRange" type="hidden" id="hdMasterDealDateRange" />\\n        <script type="text/javascript">\\n//<![CDATA[\\nSys.WebForms.PageRequestManager._initialize(\\\'ctl00$ScriptManager1\\\', \\\'form1\\\', [], [], [], 90, \\\'ctl00\\\');\\n//]]>\\n</script>\\n\\n        <div class="page-container">\\n            <!--[if lt IE 8]>\\n            <div class="browserdetect">\\n            \\t<h2 class="chromeframe">You are using an <strong>outdated</strong> browser. Please <a href="http://browsehappy.com/">upgrade your browser</a> or <a href="http://www.google.com/chromeframe/?redirect=true">activate Google Chrome Frame</a> to improve your experience.</h2>\\n            </div>\\n        <![endif]-->\\n            <!-- Logo and header toolbar -->\\n            <header><div class="container mobile-header">\\n                    <!-- Logo -->\\n                    <div class="logo" align="center">\\n                        <!--Default.aspx is removed by samy from this url for not showing it in the url-->\\n                        <a href=\\\'http://cruiseweb.com/\\\'> <img src=\\\'http://cruiseweb.com/img/logo.png\\\' title="Cruise Web" /></a>\\n                    </div>\\n                    <!-- Toolbar links -->\\n                    <div class="links">\\n                        <ul><li class="link hidden-phone"><a href=\\\'http://cruiseweb.com/already-booked/\\\'><i class="icon-tags"></i>\\n                                <br class="visible-phone" />\\n                                <span class="hidden-tablet">Already</span>\\n                                <br class="visible-phone" />\\n                                Booked?</a></li>\\n                            <li class="divider-vertical hidden-phone"></li>\\n                            <li id="lnkLogin" style="display:;" class="link hidden-phone"><a data-toggle="modal" onclick="javascript:showUsernamemodal(2);" href="#"><i class="icon-heart"></i>\\n                                <br class="visible-phone" />\\n                                Login <span class="hidden-tablet">to\\n                                    <br class="visible-phone" />\\n                                    My Cruise Web</span></a></li>\\n                            <li id="lnkMyFav" style="display:none;" class="link hidden-phone"><a href=\\\'http://cruiseweb.com/favorites/\\\'><i class="icon-heart"></i>\\n                                <br class="visible-phone" />\\n                                <span class="hidden-tablet">\\n                                    <br class="visible-phone" />\\n                                    My Favorites</span></a></li>\\n                            <li class="divider-vertical hidden-phone"></li>\\n                            <li id="cruiseregister" style="display:;" class="link hidden-phone" role="button">\\n                                <a href="#" onclick="javascript: showUsernamemodal(1);"><i class="icon-edit"></i>\\n                                    <br class="visible-phone" />\\n                                    Register</a></li>\\n                            <li id="cruiselogout" style="display:none;" class="link hidden-phone" role="button">\\n                                <a id="lnkLogout" class="MyStyleClass" href="javascript:__doPostBack(&#39;ctl00$lnkLogout&#39;,&#39;&#39;)"><i class="icon-edit"></i>\\n                                    <br class="visible-phone" />Logout </a>\\n                            </li>\\n                            <li class="phone">\\n                                <div class="digits"><strong><a href="tel:18003779383">1.800.377.9383</a></strong></div>\\n                                <!--<p class="visible-phone">Tap our phone number to <a href="tel:18003779383">call us</a><br> for a FREE consultation</p>-->\\n                            </li>\\n                        </ul>\\n                        <div class="button visible-phone" align="center">\\n                            <a href="#" data-target=\\\'/personalquote-modal.htm\\\' data-toggle="modal" class="btn btn-orange modal-iframe"><strong>Personal Quote</strong></a>\\n                        </div>\\n                    </div>\\n                    <!-- Buttons & search -->\\n                    <div class="buttons hidden-phone">\\n                        <ul><li class="button" id="btnEmailDeals">\\n                                <a href="#" data-target=\\\'/modal-emaildeals.htm\\\' data-toggle="modal" class="btn btn-orange modal-iframe"><strong>Email Deals</strong></a>\\n                            </li>\\n                            <li class="button">\\n                                <a href="#" data-target=\\\'/personalquote-modal.htm\\\' data-toggle="modal" class="btn btn-orange modal-iframe"><strong>Personal Quote</strong></a></li>\\n                            <!--<li class="search"><a class="btn large-icon" href="search/"><img src=\\\'/img/icon-magnify.png\\\' title="Search" /></a></li>-->\\n                            <li class="sitesearch"><iframe style="border: none; padding: 0; margin: 0;" name="frmSearch" src=\\\'http://cruiseweb.com/internalsearch.aspx\\\' id="frmTop" marginheight="0" marginwidth="0" frameborder="0" width="200" height="32"></iframe>\\n                            </li></ul></div> </div>  </header>\\n            <!-- Cruise search modal placeholder -->\\n            <div id="ajax-cruisesearchmodal" class="modal hide fade" tabindex="-1" data-focus-on="input:first"></div>\\n            <!-- Main navigation -->\\n            <div class="navigation">\\n                <div class="container">\\n                    <div class="navbar navbar-inverse">\\n                       \\n\\n                         <ul class="pull-left visible-phone micro-nav">\\n                        <li class="link pull-left"><a href=\\\'http://cruiseweb.com/already-booked/\\\'><i class="icon-tags icon-white"></i> Booked?</a></li>\\n                        \\n                         <li class="link pull-left"><a href="javascript:void(0);" onclick="javascript:showUsernamemodal(2)"><i class="icon-heart icon-white"></i>Login</a></li>\\n                        <li class="link pull-left"><a href="#" onclick="javascript:showUsernamemodal(1)"><i class="icon-edit icon-white"></i>Register</a></li>\\n                   \\n                        \\n                        \\n                    </ul>\\n                        <!-- .btn-navbar is used as the toggle for collapsed navbar content -->\\n                        <a class="btn btn-navbar btn-inverse" data-toggle="collapse" data-target=".nav-collapse">\\n                            <span class="icon-bar"></span>\\n                            <span class="icon-bar"></span>\\n                            <span class="icon-bar"></span>\\n                        </a>\\n                        <div class="nav-collapse collapse navbar-responsive-collapse">\\n                            <ul class="nav">\\n                                <!-- Find a Cruise -->\\n                                <!-- Override the click action which closes this panel -->\\n                                <li class="dropdown"><a id="navFindCruise" role="button" class="dropdown-toggle disabled" data-hover="dropdown" data-toggle="dropdown" data-delay="500"  href="javascript:void(0);">Find a Cruise</a>\\n                                    <div class="dropdown-menu menu menu-search" role="menu" aria-labelledby="Find a Cruise">\\n                                        <!-- Triggers for AJAX modal panels -->\\n                                        <div class="input-prepend input-append">\\n                                            <button id="menu-cruisetype" role="button" class="btn nav-form" data-target=\\\'/modal-cruisetype.aspx\\\' data-toggle="modal">Cruise Type</button>\\n                                            <input id="mainCruiseType" type="text" placeholder="Cruise Type" value="Cruise Type" readonly style="display: none" />\\n                                            <button id="menu-cruisetypedrop" role="button" class="btn large-icon" data-target=\\\'/modal-cruisetype.aspx\\\' data-toggle="modal">\\n                                                <img src=\\\'http://cruiseweb.com/img/icon-droparrow.png\\\' title="Search" /></button>\\n                                        </div>\\n                                        <br class="visible-phone" />\\n                                        <div class="input-prepend input-append">\\n                                            <button id="menu-cruisedest" role="button" class="btn nav-form" data-target=\\\'/modal-cruisedest.aspx\\\' data-toggle="modal">Cruise Destination</button>\\n                                            <input id="mainCruiseDestination" type="text" placeholder="Cruise Destination" value="Cruise Destination" readonly style="display: none" />\\n                                            <button id="menu-cruisedestdrop" role="button" class="btn large-icon" data-target=\\\'/modal-cruisedest.aspx\\\' data-toggle="modal">\\n                                                <img src=\\\'http://cruiseweb.com/img/icon-droparrow.png\\\' title="Search" /></button>\\n                                        </div>\\n                                        <br class="visible-phone" />\\n                                        <div class="input-prepend input-append">\\n                                            <button id="menu-cruisedate" role="button" class="btn nav-form" data-target=\\\'/modal-cruisedate.aspx\\\' data-toggle="modal">Cruise Date</button>\\n                                            <input id="mainCruiseDate" type="text" placeholder="Departure Date" value="Departure Date" readonly style="display: none" />\\n                                            <button id="menu-cruisedatedrop" role="button" class="btn large-icon" data-target=\\\'/modal-cruisedate.aspx\\\' data-toggle="modal">\\n                                                <img src=\\\'http://cruiseweb.com/img/icon-droparrow.png\\\' title="Search" /></button>\\n                                        </div>\\n                                        \\n                                        <button class="btn btn-blue btn-block" onclick="return GetSessionValues(1);" type="button">Search</button>\\n                                        <!--Index.aspx is removed by samy from this url for not showing it in the url-->\\n                                        <p class="small-link" style="padding: 6px 0 0 0; margin: 0;"><a onclick="javascript:showBlockPanel();" href=\\\'http://cruiseweb.com/search/\\\'>Advanced Search</a></p>\\n                                    </div> </li>\\n                                <li class="divider-vertical visible-desktop"></li>\\n                                <!-- Deals -->\\n                                <!-- Adding class="disabled" to make the href work on click -->\\n                                <li class="dropdown"><a id="navDeals" role="button" class="dropdown-toggle disabled navigationURL" data-toggle="dropdown" data-hover="dropdown" href=\\\'http://cruiseweb.com/deals/\\\'>Deals</a>\\n                                    <div class="dropdown-menu menu menu-deals" role="menu" aria-labelledby="Cruise Deals">\\n                                        <ul id="dealFirst"><li ><a href=http://cruiseweb.com/deals/featured-cruise-deals><img src=\\\'http://cruiseweb.com/admin/images/dealcategory/imagea/dealcataimage1.jpg\\\' title=\\\'Deal\\\' /><p><strong> Featured Cruise Deals  </strong></p></a></li><li ><a href=http://cruiseweb.com/deals/cruise-deals><img src=\\\'http://cruiseweb.com/admin/images/dealcategory/imagea/dealcataimage2.jpg\\\' title=\\\'Deal\\\' /><p><strong> Deals by Destination  </strong></p></a></li><li ><a href=http://cruiseweb.com/deals/cruise-deals><img src=\\\'http://cruiseweb.com/admin/images/dealcategory/imagea/dealcataimage3.jpg\\\' title=\\\'Deal\\\' /><p><strong> Deals by Cruise Line  </strong></p></a></li><li ><a href=http://cruiseweb.com/deals/cruise-deals-departing><img src=\\\'http://cruiseweb.com/admin/images/dealcategory/imagea/dealcataimage4.jpg\\\' title=\\\'Deal\\\' /><p><strong> Deals by Departure Port  </strong></p></a></li></ul>\\n                                        <ul id="dealSecond"><li ><a href=http://cruiseweb.com/deals/last-minute-cruise-deals><img src=\\\'http://cruiseweb.com/admin/images/dealcategory/imagea/dealcataimage5.jpg\\\' title=\\\'Deal\\\' /><p><strong> Last Minute Cruise Deals  </strong></p></a></li><li ><a href=http://cruiseweb.com/deals/holiday-cruise-deals><img src=\\\'http://cruiseweb.com/admin/images/dealcategory/imagea/dealcataimage6.jpg\\\' title=\\\'Deal\\\' /><p><strong> Holiday Cruise Deals  </strong></p></a></li><li ><a href=http://cruiseweb.com/deals/military-cruise-deals><img src=\\\'http://cruiseweb.com/admin/images/dealcategory/imagea/dealcataimage7.jpg\\\' title=\\\'Deal\\\' /><p><strong> Military Cruise Deals  </strong></p></a></li><li ><a href=http://cruiseweb.com/deals/family-cruise-deals><img src=\\\'http://cruiseweb.com/admin/images/dealcategory/imagea/dealcataimage8.jpg\\\' title=\\\'Deal\\\' /><p><strong> Family Cruise Deals  </strong></p></a></li></ul>\\n                                    </div>\\n                                </li>\\n                                <li class="divider-vertical visible-desktop"></li>\\n                                <!-- Destinations -->\\n                                <!-- Adding class="disabled" to make the href work on click -->\\n                                <li class="dropdown"><a id="navDestPorts" role="button" class="dropdown-toggle disabled navigationURL" data-toggle="dropdown" data-hover="dropdown" href=\\\'http://cruiseweb.com/destinations/\\\'>Destinations &amp; Ports</a>\\n                                    <div class="dropdown-menu menu menu-destports" role="menu" aria-labelledby="Destinations and Ports">\\n                                        <ul><li id="lidestination"><a href=http://cruiseweb.com/destinations/popular><img src=http://cruiseweb.com/img/nav/destinations-menu-image.jpg title=\\\'Popular Destinations\\\' /><p style=\\\'padding-bottom: 4px;\\\'><strong>Popular Destinations</strong></p></a><a href=http://cruiseweb.com/destinations/cruise-alaska><p>Alaska</p></a><a href=http://cruiseweb.com/destinations/cruise-asia><p>Asia</p></a><a href=http://cruiseweb.com/destinations/cruise-bahamas><p>Bahamas</p></a><a href=http://cruiseweb.com/destinations/cruise-bermuda><p>Bermuda</p></a><a href=http://cruiseweb.com/destinations/cruise-caribbean><p>Caribbean</p></a><a href=http://cruiseweb.com/destinations/cruise-hawaii><p>Hawaii</p></a><a href=http://cruiseweb.com/destinations/cruise-mediterranean><p>Mediterranean</p></a><a href=http://cruiseweb.com/destinations/cruise-northern-europe><p>Northern Europe</p></a><a href=http://cruiseweb.com/destinations/cruise-panama-canal><p>Panama Canal</p></a> <a  href=http://cruiseweb.com/destinations/><p>View All</p></a></li> <li id="liPorts"><a href=http://cruiseweb.com/ports/popular><img src=http://cruiseweb.com/img/nav/departure-ports-menu-image.jpg title=\\\'Popular Departure Ports\\\' /><p style=\\\'padding-bottom: 4px;\\\'><strong>Popular Departure Ports</strong></p></a><a href=http://cruiseweb.com/ports/departs-baltimore-maryland><p>Baltimore, Maryland</p></a><a href=http://cruiseweb.com/ports/departs-boston-massachusetts><p>Boston, Massachusetts</p></a><a href=http://cruiseweb.com/ports/departs-cape-liberty-(bayonne)-new-jersey><p>Cape Liberty (Bayonne), New Jersey</p></a><a href=http://cruiseweb.com/ports/departs-fort-lauderdale-(port-everglades)><p>Fort Lauderdale (Port Everglades)</p></a><a href=http://cruiseweb.com/ports/departs-jacksonville-florida><p>Jacksonville, Florida</p></a><a href=http://cruiseweb.com/ports/departs-los-angeles-california><p>Los Angeles, California</p></a><a href=http://cruiseweb.com/ports/departs-miami-florida><p>Miami, Florida</p></a><a href=http://cruiseweb.com/ports/departs-new-orleans-louisiana><p>New Orleans, Louisiana</p></a><a href=http://cruiseweb.com/ports/departs-new-york-new-york><p>New York, New York</p></a> <a  href=http://cruiseweb.com/ports/><p>View All</p></a></li> </ul>\\n                                    </div>\\n                                </li>\\n                                <li class="divider-vertical visible-desktop"></li>\\n                                <!-- Cruise Lines -->\\n                                <!-- Adding class="disabled" to make the href work on click -->\\n                                <li class="dropdown"><a id="navCruiseLines" role="button" class="dropdown-toggle disabled navigationURL " data-toggle="dropdown" data-hover="dropdown" href=\\\'http://cruiseweb.com/cruise-lines/\\\'>Cruise Lines</a>\\n                                <div class="dropdown-menu menu menu-cruiselines" role="menu" aria-labelledby="Cruise Lines">\\n                                <ul><li><a href=\\\'http://cruiseweb.com/popular-cruise-lines/\\\'> <img src=\\\'http://cruiseweb.com/img/nav/popular-cruise-lines-menu-image.jpg\\\' title="Popular Lines" /><p><strong>Popular Lines</strong></p></a></li>\\n                                <li><a href=\\\'http://cruiseweb.com/luxury-cruise-lines/\\\'><img src=\\\'http://cruiseweb.com/img/nav/luxury-cruise-lines-menu-image.jpg\\\' title="Luxury Lines" /><p><strong>Luxury Lines</strong></p></a></li>\\n                                <li><a href=\\\'http://cruiseweb.com/river-cruise-lines/\\\'><img src=\\\'http://cruiseweb.com/img/nav/river-cruise-lines-menu-image.jpg\\\' title="River Lines" /><p><strong>River Lines</strong></p></a></li>\\n                                <li><a href=\\\'http://cruiseweb.com/cruise-lines/\\\'><img src=\\\'http://cruiseweb.com/img/nav/all-cruise-lines-menu-image.jpg\\\' title="All Lines" /><p><strong>All Lines</strong></p></a></li>\\n                                </ul><ul><li id="liPopular" class="extra"><a href=http://cruiseweb.com/cruise-lines/avalon-waterways><p>Avalon Waterways</p></a><a href=http://cruiseweb.com/cruise-lines/azamara-club-cruises><p>Azamara Club Cruises</p></a><a href=http://cruiseweb.com/cruise-lines/carnival-cruise-line><p>Carnival Cruise Line</p></a><a href=http://cruiseweb.com/cruise-lines/celebrity-cruises><p>Celebrity Cruises</p></a><a href=http://cruiseweb.com/cruise-lines/crystal-cruises><p>Crystal Cruises</p></a><a href=http://cruiseweb.com/cruise-lines/cunard><p>Cunard</p></a><a href=http://cruiseweb.com/cruise-lines/fathom><p>Fathom</p></a></li> <li id="liLuxury" class="extra"><a href=http://cruiseweb.com/cruise-lines/holland-america-line><p>Holland America Line</p></a><a href=http://cruiseweb.com/cruise-lines/msc-cruises><p>Msc Cruises</p></a><a href=http://cruiseweb.com/cruise-lines/norwegian-cruise-line><p>Norwegian Cruise Line</p></a><a href=http://cruiseweb.com/cruise-lines/oceania-cruises><p>Oceania Cruises</p></a><a href=http://cruiseweb.com/cruise-lines/paul-gauguin-cruises><p>Paul Gauguin Cruises</p></a><a href=http://cruiseweb.com/cruise-lines/princess-cruises><p>Princess Cruises</p></a><a href=http://cruiseweb.com/cruise-lines/regent-seven-seas-cruises><p>Regent Seven Seas Cruises</p></a></li> <li id="liRiver" class="extra"><a href=http://cruiseweb.com/cruise-lines/royal-caribbean-international><p>Royal Caribbean International</p></a><a href=http://cruiseweb.com/cruise-lines/seabourn-cruise-line><p>Seabourn Cruise Line</p></a><a href=http://cruiseweb.com/cruise-lines/silversea-cruises><p>Silversea Cruises</p></a><a href=http://cruiseweb.com/cruise-lines/uniworld-river-cruises><p>Uniworld River Cruises</p></a><a href=http://cruiseweb.com/cruise-lines/viking-oceans><p>Viking Oceans</p></a><a href=http://cruiseweb.com/cruise-lines/viking-river-cruises><p>Viking River Cruises</p></a><a href=http://cruiseweb.com/cruise-lines/windstar-cruises><p>Windstar Cruises</p></a></li> </ul></div></li><li class="divider-vertical visible-desktop"></li>\\n                                <!-- All About Cruising -->\\n                                <!-- Adding class="disabled" to make the href work on click -->\\n                                <li class="dropdown pull-right"><a id="navAbout" role="button" class="dropdown-toggle disabled navigationURL " data-toggle="dropdown" data-hover="dropdown" href=\\\'http://cruiseweb.com/all-about-cruising/\\\'>All About Cruising</a>\\n                                <div class="dropdown-menu menu menu-about" role="menu" aria-labelledby="All About Cruising"><ul><li><a href=\\\'http://cruiseweb.com/cruising-101/\\\'><img src=\\\'http://cruiseweb.com/img/nav/cruising-101-menu-image.jpg\\\' title="Cruising 101" /><p>\\n                                <strong>Cruising 101</strong></p> </a><a href="#" data-target=\\\'/personalquote-modal.htm\\\' data-toggle="modal" class="modal-iframe"><p>Free Consultation</p> </a><a href=\\\'http://cruiseweb.com/why-cruise/\\\'>\\n                                <p> Why Cruise? </p></a><a href=\\\'http://cruiseweb.com/cruise-faq/\\\'><p>Cruise FAQ</p></a><a href=\\\'http://cruiseweb.com/shore-excursions/\\\'><p>Shore Excursions </p>\\n                                </a><a href=\\\'http://cruiseweb.com/cruising-tips/\\\'><p>Cruising Tips</p></a><a href=\\\'http://cruiseweb.com/photo-galleries/\\\'><p>Photo Galleries</p>\\n                                </a></li><li><a href=\\\'http://cruiseweb.com/specialty-cruises/\\\'><img src=\\\'http://cruiseweb.com/img/nav/specialty-cruises-menu-image.jpg\\\' title="Specialty Cruises" /><p><strong>Specialty Cruises</strong>\\n                                </p></a><a href=\\\'http://cruiseweb.com/group-cruises/\\\'><p>Group Cruises</p></a><a href=\\\'http://cruiseweb.com/business-incentive-cruises/\\\'><p>Business / Incentive Cruises</p></a><a href=\\\'http://cruiseweb.com/events-meetings-atsea/\\\'>\\n                                <p>Events &amp; Meetings at Sea </p></a><a href=\\\'http://cruiseweb.com/private-charters/\\\'><p>Private Charters</p></a><a href=\\\'http://cruiseweb.com/theme-cruises/\\\'>\\n                                <p>Theme Cruises </p></a><a href=\\\'http://cruiseweb.com/river-cruises/\\\'><p>River Cruises </p></a><a href=\\\'http://cruiseweb.com/cruise-tours/\\\'><p>Cruise Tours</p> </a><a href=\\\'http://cruiseweb.com/wedding-cruises/\\\'>\\n                                <p>Wedding Cruises</p></a><a href=\\\'http://cruiseweb.com/hosted-cruises/\\\'><p>Hosted Cruises</p></a><a href=\\\'http://cruiseweb.com/family-cruises/\\\'><p>Family Cruises</p>\\n                                </a></li><li><a href=\\\'http://cruiseweb.com/news-media/\\\'><img src=\\\'http://cruiseweb.com/img/nav/news-and-media-menu-image.jpg\\\' title="News Media" /><p>\\n                                <strong>News &amp; Media</strong></p></a><a href=\\\'http://cruiseweb.com/press-news/\\\'><p>Press &amp; News</p></a><a href=\\\'http://cruiseweb.com/photo-galleries/\\\'>\\n                                <p>Photo Galleries </p></a><a href=\\\'http://cruiseweb.com/testimonials/\\\'><p>Testimonials</p></a><a target="_blank" href="http://cruiseweb.com/blog/"><p> Blog</p></a><a href=\\\'http://cruiseweb.com/newsletter/\\\'>\\n                                <p>Newsletter</p></a><a href=\\\'http://cruiseweb.com/social-media/\\\'><p>Social Media </p></a></li>\\n                                </ul></div></li><li class="divider-vertical visible-desktop"></li>\\n                                <!-- Contact -->\\n                                <!-- Adding class="disabled" to make the href work on click -->\\n                                <li class="dropdown pull-right"><a id="navContact" role="button" class="dropdown-toggle disabled navigationURL " data-toggle="dropdown" data-hover="dropdown" href=\\\'http://cruiseweb.com/contact-and-support/\\\'>Contact &amp; Support</a>\\n                                    <div class="dropdown-menu menu menu-contact" role="menu" aria-labelledby="Contact and Support">\\n                                        <ul>\\n                                            <li><a href=\\\'http://cruiseweb.com/already-booked/\\\'>\\n                                                <img src=\\\'http://cruiseweb.com/img/nav/already-booked-menu-image.jpg\\\' title="Already Booked" /><p>\\n                                                    <strong>Already Booked?</strong>\\n                                                </p>\\n                                            </a><a href=\\\'http://cruiseweb.com/already-booked/\\\'>\\n                                                <p>\\n                                                    Pre-registration\\n                                                </p>\\n                                            </a><a href=\\\'http://cruiseweb.com/passports-visas/\\\'>\\n                                                <p>\\n                                                    Passports / Visas\\n                                                </p>\\n                                            </a><a href=\\\'http://cruiseweb.com/already-booked/\\\'>\\n                                                <p>Tickets </p>\\n                                            </a><a href=\\\'http://cruiseweb.com/travel-protection/\\\'> <p>Travel Protection </p>\\n                                            </a><a href=\\\'http://cruiseweb.com/shore-excursions/\\\'><p>Shore Excursions </p> </a></li>\\n                                            <li><a href=\\\'http://cruiseweb.com/why-cruise-web/\\\'>\\n                                                <img src=\\\'http://cruiseweb.com/img/nav/why-cruise-web-menu-image.jpg\\\' title="Why Cruise Web" /><p>\\n                                                    <strong>Why Cruise Web?</strong>\\n                                                </p>\\n                                            </a><a href=\\\'http://cruiseweb.com/our-approach/\\\'>\\n                                                <p>Our Approach</p>\\n                                            </a><a href=\\\'http://cruiseweb.com/low-price-guarantee/\\\'>\\n                                                <p>Low Price Guarantee</p>\\n                                            </a><a href=\\\'http://cruiseweb.com/gift-certificates/\\\'>\\n                                                <p>Gift Certificates </p>\\n                                            </a><a href=\\\'http://cruiseweb.com/careers/\\\'><p>Careers </p> </a></li>\\n                                            <li><a href=\\\'http://cruiseweb.com/need-help/\\\'>\\n                                                <img src=\\\'http://cruiseweb.com/img/nav/need-help-menu-image.jpg\\\' title="Need Help" /><p>\\n                                                    <strong>Need Help?</strong>\\n                                                </p>\\n                                            </a><a href="#" data-target=\\\'http://cruiseweb.com/personalquote-modal.htm\\\'\\n                                                    data-toggle="modal" class="modal-iframe">\\n                                                    <p>Free Consultation</p>\\n                                                </a>\\n                                                <a href=\\\'http://cruiseweb.com/customer-service/\\\'>\\n                                                    <p>\\n                                                        Customer Service\\n                                                    </p>\\n                                                </a><a href=\\\'http://cruiseweb.com/contact-us/\\\'>\\n                                                    <p>\\n                                                        Contact Us\\n                                                    </p>\\n                                                </a></li>\\n                                        </ul> </div> </li></ul> </div>  </div> </div></div>\\n            <!-- Main site container -->\\n            \\n    \\n<script type="text/javascript">\\n    $(document).ready(function () { pageFavorite();});\\n    $(\\\'#sharebar .favorite a\\\').click(function (e) {e.preventDefault(); });\\n    var isPageFavorite;\\n    function pageFavorite() {\\n        var IsFavourite = $("[id$=hfIsFavourite]").val();\\n        if (IsFavourite.toLowerCase() == \\\'false\\\') {\\n            $("#sharebar .favorite a").removeClass("active");\\n            $("#sharebar .favorite").find(".mark-fave").show();\\n            $("#sharebar .favorite").find(".unmark-fave").hide();\\n        } else {\\n            $("#sharebar .favorite a").addClass("active");\\n            $("#sharebar .favorite").find(".mark-fave").hide();\\n            $("#sharebar .favorite").find(".unmark-fave").show();\\n        } \\n    }\\n    function fireFavEvent() { __doPostBack(\\\'fav\\\', \\\'eventArgument\\\');}\\n</script>\\n<!-- Share this page Script BEGIN -->\\n<script type="text/javascript">var addthis_config =\\n{\\n    "data_track_address_bar": false,\\n    "data_track_clickback": false\\n};</script>\\n<script type="text/javascript"  src="http://s7.addthis.com/js/300/addthis_widget.js#pubid=ra-5265f51c2796a2a2"></script>\\n<!-- Share this page Script END -->\\n<div id="sharebar"> <div class="sharebar-position">   <a class="addthis_button" href="http://www.addthis.com/bookmark.php?v=300&amp;pubid=ra-5265f51c2796a2a2"> <img src=\\\'http://cruiseweb.com/img/lg-share-en.gif\\\'  width="125" height="16" alt="Bookmark and Share" style="border: 0" /></a> <div class="favorite" onclick="javascript:fireFavEvent();"><a href="#" class="active" alt="" title="Favorite"><span class="mark-fave">Mark as favorite</span><span class="unmark-fave">Unmark favorite</span></a></div> </div></div>\\n<input type="hidden" name="ctl00$cphlUser$RotatingBanner$hfIsFavourite" id="cphlUser_RotatingBanner_hfIsFavourite" value="False" /><div id="cphlUser_RotatingBanner_divRotatingBanner"><input type="hidden" name="ctl00$cphlUser$RotatingBanner$hdnBanner" id="cphlUser_RotatingBanner_hdnBanner" value="Home" />\\n    <!-- Large galery -->\\n <section class="gallery"><div class="flexslider-main"><ul id="cphlUser_RotatingBanner_galImages" class="slides"><li><a href=\\\'http://cruiseweb.com/cunard-line-specials/\\\' title=\\\'Cunard 3 for All: 30% Off, Free OBC and Free Tips\\\' target=\\\'_blank\\\'><img src=\\\'http://cruiseweb.com/admin/Images/image-gallery/cun-3forall-banner.jpg\\\' alt=\\\'Cunard 3 for All: 30% Off, Free OBC and Free Tips\\\' draggable=\\\'false\\\'><div class=\\\'poster\\\' style=\\\'background-image: url(http://cruiseweb.com/admin/Images/image-gallery/cun-3forall-banner.jpg);\\\'></div></a></li><li><a href=\\\'http://cruiseweb.com/celebrity-cruises-specials/\\\' title=\\\'Celebrity Cruises with up to 4 FREE Perks*\\\' target=\\\'_blank\\\'><img src=\\\'http://cruiseweb.com/admin/Images/image-gallery/cel-sea-of-savings-banner.jpg\\\' alt=\\\'Celebrity Cruises with up to 4 FREE Perks*\\\' draggable=\\\'false\\\'><div class=\\\'poster\\\' style=\\\'background-image: url(http://cruiseweb.com/admin/Images/image-gallery/cel-sea-of-savings-banner.jpg);\\\'></div></a></li><li><a href=\\\'http://cruiseweb.com/msc-cruises-specials/\\\' title=\\\'MSC Cruises Seaside Sale plus Kids Sail FREE*\\\' target=\\\'_blank\\\'><img src=\\\'http://cruiseweb.com/admin/Images/image-gallery/msc-cruises-seaside-sale-banner.jpg\\\' alt=\\\'MSC Cruises Seaside Sale plus Kids Sail FREE*\\\' draggable=\\\'false\\\'><div class=\\\'poster\\\' style=\\\'background-image: url(http://cruiseweb.com/admin/Images/image-gallery/msc-cruises-seaside-sale-banner.jpg);\\\'></div></a></li></ul><div class="flex-main-nav"></div></div></section></div>\\n<script type="text/javascript">\\n   function PushFavoritesToEloque(result) {\\n        if (result.elqFormName) $("[name=elqFormName]").val(result.elqFormName);\\n        if (result.elqSiteID) $("[name=elqSiteID]").val(result.elqSiteID);\\n        if (result.favoriteID) $("[name=favoriteID]").val(result.favoriteID);\\n        if (result.pageName) $("[name=pageName]").val(result.pageName);\\n        if (result.pagePath) $("[name=pagePath]").val(result.pagePath);\\n        if (result.addedDate) $("[name=addedDate]").val(result.addedDate);\\n        if (result.removedFlag) $("[name=removedFlag]").val(result.removedFlag);\\n        if (result.emailAddress) $("[name=EmailAddress]").val(result.emailAddress);\\n        var formtag = $(\\\'form[name="cruiseFavoritesBackend"]\\\').serialize();\\n        $(\\\'form#cruiseFavoritesBackend\\\').submit();\\n    }\\n</script>\\n\\n    <div class="main-body"><div class="container main-tagline"> <h1 class="tagline-title"> <a href="#" data-target=\\\'/personalquote-modal.htm\\\'  data-toggle="modal" class="modal-iframe">Expert guidance for your cruise vacation!</a></h1></div>\\n        <!-- Content -->\\n        <section class="container main-content bottom-bar"><div id="cphlUser_topthreedeals"> <div class=\\\'span3 deal\\\'><a target=\\\'_blank\\\' href=http://cruiseweb.com/deals/cruise-deals><img class=\\\'lazy\\\' src=\\\'http://cruiseweb.com/admin/images/deal/imageb/dealbimage174.jpg\\\'  alt=\\\'Cruise Deals by Destination!\\\' title=\\\'View Deal\\\'> <div class=\\\'deal-description\\\'><p>Cruise Deals by Destination!</p></div> </a> </div> <div class=\\\'span3 deal\\\'><a target=\\\'_blank\\\' href=http://cruiseweb.com/deals/cruise-deals><img class=\\\'lazy\\\' src=\\\'http://cruiseweb.com/admin/images/deal/imageb/dealbimage175.jpg\\\'  alt=\\\'Cruise Deals by Cruise Line!\\\' title=\\\'View Deal\\\'> <div class=\\\'deal-description\\\'><p>Cruise Deals by Cruise Line!</p></div> </a> </div> <div class=\\\'span3 deal\\\'><a target=\\\'_blank\\\' href=http://cruiseweb.com/deals/cruise-deals-departing><img class=\\\'lazy\\\' src=\\\'http://cruiseweb.com/admin/images/deal/imageb/dealbimage176.jpg\\\'  alt=\\\'Cruise Deals by Departure Port!\\\' title=\\\'View Deal\\\'> <div class=\\\'deal-description\\\'><p>Cruise Deals by Departure Port!</p></div> </a> </div></div>\\n            <!-- 4th column side feature search box -->\\n            <div class="span3 cruise-search"><div id="cruise-search-block"><div class="cruise-search-form">\\n                        <img src="http://cruiseweb.com/img/logo-boat.png" class="boat" alt="Cruise Web">\\n                        <div class="boat-title"><em>Find a</em><span class="hidden-phone"><br />\\n                            &nbsp;</span><strong> Cruise</strong></div>\\n                        <div class="clearfix"></div>\\n                        <div class="input-prepend input-append">\\n                            <button id="side-cruisetype" role="button" class="btn nav-form" data-target=\\\'/modal-cruisetype.aspx\\\' data-toggle="modal">Cruise Type</button>\\n                            <input id="sideCruiseType" type="text" placeholder="Cruise Type" value="Cruise Type" readonly style="display: none" />\\n                            <button id="side-cruisetypedrop" role="button" class="btn large-icon" data-target=\\\'/modal-cruisetype.aspx\\\' data-toggle="modal">\\n                                <img src="http://cruiseweb.com/img/icon-droparrow.png" title="Search" /></button> </div>\\n                        <br class="visible-phone" />\\n                        <div class="input-prepend input-append">\\n                            <button id="side-cruisedest" role="button" class="btn nav-form" data-target=\\\'/modal-cruisedest.aspx\\\' data-toggle="modal">Cruise Destination</button>\\n                            <input id="sideCruiseDestination" type="text" placeholder="Cruise Destination" value="Cruise Destination" readonly style="display: none"/>\\n                            <button id="side-cruisedestdrop" role="button" class="btn large-icon" data-target=\\\'/modal-cruisedest.aspx\\\' data-toggle="modal">\\n                                <img src="http://cruiseweb.com/img/icon-droparrow.png" title="Search" /></button> </div>\\n                        <br class="visible-phone" />\\n                        <div class="input-prepend input-append">\\n                            <button id="side-cruisedate" role="button" class="btn nav-form" data-target=\\\'/modal-cruisedate.aspx\\\' data-toggle="modal">Cruise Date</button>\\n                            <input id="sideCruiseDate" type="text" placeholder="Departure Date" value="Departure Date" readonly style="display: none"/>\\n                            <button id="side-cruisedatedrop" role="button" class="btn large-icon" data-target=\\\'/modal-cruisedate.aspx\\\' data-toggle="modal">\\n                                <img src="http://cruiseweb.com/img/icon-droparrow.png" title="Search" /></button></div>\\n                        <div align="center"> <button class="btn btn-blue btn-block" onclick="return GetSessionValues(1);" type="button">Search</button> </div>\\n                        <!--It is updated by samy to remove the default.aspx and index.aspx from the URL so it is removed from the following URL -->\\n                        <p class="small-link pull-right" style="padding: 6px 0 0 0; margin: 0;"><a href=\\\'http://cruiseweb.com/search/\\\'>Advanced Search</a></p>\\n                    </div> </div></div></section>\\n <script>\\n     function ClearSessionValuesOfQuickSearch() {\\n         document.getElementById("hdMasterType").value = "";\\n         document.getElementById("hdMasterLines").value = "";\\n         document.getElementById("hdMasterDestination").value = "";\\n         document.getElementById("hdMasterDateRange").value = "";\\n         document.getElementById("hdMasterDateRangeCriteria").value = "";\\n         document.getElementById("hdMasterDealDateRange").value = "";\\n         var clearURL = \\\'/\\\' + "ClearSessionValues.ashx?t=" + Math.random() + "&mode=9";\\n         $.ajax({\\n             type: \\\'POST\\\',\\n             headers: { "cache-control": "no-cache" },\\n             url: clearURL\\n         });\\n         return false;\\n     }\\n </script>\\n\\n            <!-- Map -->\\n\\n  \\n            <!-- 3-item spotlight -->\\n            <!-- Content -->\\n            <section class="container main-content arrow-box-up">\\n             \\n    \\n            </section>\\n        </div>\\n        <!-- Begin ginormous footer region -->\\n        <section id="planning">\\n            <div class="container">\\n                <div align="center" class="inline-lg-title">Let Us Help Plan Your Dream Vacation</div>\\n                <div class="row-fluid">\\n                    <div class="span6">\\n                        <h3><strong>Our Cruise Consultants<br class="visible-phone" />\\n                            Make It Easy</strong></h3>\\n                        <p>With a world of choices, we understand you may need some personal assistance to plan your perfect vacation. From finding the perfect destination to making sure everything is just right, we\\\'re here to help. Plus, our consultants know all the latest Specials & Promotions.</p>\\n                        <p>Call us today and sleep easier tonight, knowing your dream vacation is just a cruise away.</p>\\n                    </div>\\n                    <div class="span6 phone">\\n                        <div class="planning-cta">\\n                            <div class="free-planning-title" align="center"><strong>Free Cruise Planning</strong></div>\\n                            <div class="digits" align="center"><a href="tel:18003779383">1.800.377.9383</a></div>\\n                            <div class="free-planning-subtitle" align="center">QUICK. FREE. EASY.</div>\\n                            <br />\\n                            <div align="center" class="button">\\n                                <a href="#" data-target=\\\'http://cruiseweb.com/personalquote-modal.htm\\\'\\n                                    data-toggle="modal" class="btn btn-orange modal-iframe"><strong>Personal Quote</strong></a>\\n                            </div> </div></div></div> </div> </section> <br /> <br />\\n        <!-- Footer links -->\\n        <section id="footernav">\\n            <div class="container">\\n                <div class="row-fluid">\\n                    <!-- Navigation -->\\n                    <div class="span8 footer-links">\\n                        <div class="row-fluid">\\n                            <div class="span3">\\n                                <!--Index.aspx is removed by samy from this url for not showing it in the url-->\\n                                <h3><strong><a href=\\\'http://cruiseweb.com/search/\\\'>Find a Cruise</a></strong></h3>\\n                                <ul>\\n                                    <li><a href=\\\'http://cruiseweb.com/cruise-lines/\\\'>All Cruise Types</a></li>\\n                                    <li><a href=\\\'http://cruiseweb.com/popular-cruise-lines/\\\'>Popular Cruises</a></li>\\n                                    <li><a href=\\\'http://cruiseweb.com/luxury-cruise-lines/\\\'>Luxury Cruises</a></li>\\n                                    <li><a href=\\\'http://cruiseweb.com/river-cruise-lines/\\\'>River Cruises</a></li>\\n                                </ul>\\n                            </div>\\n                            <div class="span3">\\n                                <h3><strong><a href=\\\'http://cruiseweb.com/deals/\\\'>Deals</a></strong></h3>\\n                                <ul id="footerDeals"><li ><a href=http://cruiseweb.com/deals/featured-cruise-deals>Featured Cruise Deals  </a></li><li ><a href=http://cruiseweb.com/deals/cruise-deals>Deals by Destination  </a></li><li ><a href=http://cruiseweb.com/deals/cruise-deals>Deals by Cruise Line  </a></li><li ><a href=http://cruiseweb.com/deals/cruise-deals-departing>Deals by Departure Port  </a></li><li ><a href=http://cruiseweb.com/deals/last-minute-cruise-deals>Last Minute Cruise Deals  </a></li><li ><a href=http://cruiseweb.com/deals/holiday-cruise-deals>Holiday Cruise Deals  </a></li><li ><a href=http://cruiseweb.com/deals/military-cruise-deals>Military Cruise Deals  </a></li><li ><a href=http://cruiseweb.com/deals/family-cruise-deals>Family Cruise Deals  </a></li><li><a href=http://cruiseweb.com/deals/featured-cruise-deals>More...</a></li></ul>\\n                            </div>\\n                            <div class="span3">\\n                                <h3><strong><a href=\\\'http://cruiseweb.com/destinations/\\\'>Destinations &amp; Ports</a></strong></h3>\\n                                <ul id="footerDest"><li ><a href=http://cruiseweb.com/destinations/cruise-alaska>Alaska  </a></li><li ><a href=http://cruiseweb.com/destinations/cruise-asia>Asia  </a></li><li ><a href=http://cruiseweb.com/destinations/cruise-bahamas>Bahamas  </a></li><li ><a href=http://cruiseweb.com/destinations/cruise-bermuda>Bermuda  </a></li><li ><a href=http://cruiseweb.com/destinations/cruise-caribbean>Caribbean  </a></li><li ><a href=http://cruiseweb.com/destinations/cruise-hawaii>Hawaii  </a></li><li ><a href=http://cruiseweb.com/destinations/cruise-mediterranean>Mediterranean  </a></li><li ><a href=http://cruiseweb.com/destinations/cruise-northern-europe>Northern Europe  </a></li><li ><a href=http://cruiseweb.com/destinations/cruise-panama-canal>Panama Canal  </a></li><li><a  href=http://cruiseweb.com/destinations/>All Destinations</a></li><li><a href=http://cruiseweb.com/ports/>All Ports</a></li></ul>\\n                            </div>\\n                            <div class="span3">\\n                                <h3><strong><a href=\\\'http://cruiseweb.com/cruise-lines/\\\'>Cruise Lines</a></strong></h3>\\n                                <ul>\\n                                    <li><a href=\\\'http://cruiseweb.com/popular-cruise-lines/\\\'>Popular Lines</a></li>\\n                                    <li><a href=\\\'http://cruiseweb.com/luxury-cruise-lines/\\\'>Luxury Lines</a></li>\\n                                    <li><a href=\\\'http://cruiseweb.com/river-cruise-lines/\\\'>River Lines</a></li>\\n                                    <li><a href=\\\'http://cruiseweb.com/cruise-lines/\\\'>All Lines</a></li>\\n                                </ul>\\n                            </div>\\n                        </div>\\n                        <div class="row-fluid">\\n                            <div class="span3">\\n                                <h3>\\n                                    <strong><a href=\\\'http://cruiseweb.com/all-about-cruising/\\\'>All About Cruising</a></strong></h3>\\n                                <ul>\\n                                    <li><a href=\\\'http://cruiseweb.com/cruising-101/\\\'>Cruising 101</a></li>\\n                                    <li><a href=\\\'http://cruiseweb.com/specialty-cruises/\\\'>Specialty Cruises</a></li>\\n                                    <li><a href=\\\'http://cruiseweb.com/news-media/\\\'>News &amp; Media</a></li>\\n                                </ul>\\n                            </div>\\n                            <div class="span3">\\n                                <h3>\\n                                    <strong><a href=\\\'http://cruiseweb.com/already-booked/\\\'>Already Booked</a></strong></h3>\\n                                <ul>\\n                                    <li><a href=\\\'http://cruiseweb.com/already-booked/\\\'>Pre-registration</a></li>\\n                                    <li><a href=\\\'http://cruiseweb.com/passports-visas/\\\'>Passports &amp; Visas</a></li>\\n                                    <li><a href=\\\'http://cruiseweb.com/already-booked/\\\'>Tickets</a></li>\\n                                    <li><a href=\\\'http://cruiseweb.com/travel-protection/\\\'>Travel Protection</a></li>\\n                                    <li><a href=\\\'http://cruiseweb.com/shore-excursions/\\\'>Shore Excursions</a></li>\\n                                </ul>\\n                            </div>\\n                            <div class="span3">\\n                                <h3>\\n                                    <strong><a href=\\\'http://cruiseweb.com/why-cruise-web/\\\'>Why Cruise Web</a></strong></h3>\\n                                <ul>\\n                                    <li><a href=\\\'http://cruiseweb.com/our-approach/\\\'>Our Approach</a></li>\\n                                    <li><a href=\\\'http://cruiseweb.com/low-price-guarantee/\\\'>Low Price Guarantee</a></li>\\n                                    <li><a href=\\\'http://cruiseweb.com/careers/\\\'>Careers</a></li>\\n                                </ul>\\n                            </div>\\n                            <div class="span3">\\n                                <h3>\\n                                    <strong><a href=\\\'http://cruiseweb.com/need-help/\\\'>Need Help</a></strong></h3>\\n                                <ul>\\n                                    <!--It is commented and added new tag by samy to link to personal quote page-->\\n                                    \\n                                    <li>\\n                                        <a href="#" data-target=\\\'http://cruiseweb.com/personalquote-modal.htm\\\'\\n                                            data-toggle="modal" class="modal-iframe">Free Consultation</a></li>\\n                                    <li><a href=\\\'http://cruiseweb.com/customer-service/\\\'>Customer Service</a></li>\\n                                    <li><a href=\\\'http://cruiseweb.com/contact-us/\\\'>Contact Us</a></li>\\n                                </ul>  </div>  </div>  </div>\\n                    <!-- Social Media -->\\n                    <div class="span4 footer-social">\\n                        <div class="connect-title">\\n                            <strong>Connect With Us</strong><img src=\\\'http://cruiseweb.com/img/social/icon-social.png\\\' alt="Social"\\n                                title="Social" class="title-icon">\\n                        </div>\\n                        <p>\\n                            <a href="https://www.facebook.com/TheCruiseWeb" target="_blank">\\n                                <img src=\\\'http://cruiseweb.com/img/social/icon-facebook.png\\\' alt="Facebook" title="Facebook"></a><a\\n                                    href="https://twitter.com/TheCruiseWeb/" target="_blank"><img src=\\\'http://cruiseweb.com/img/social/icon-twitter.png\\\'\\n                                        alt="Twitter" title="Twitter"></a><a href="http://www.pinterest.com/thecruiseweb/"\\n                                            target="_blank"><img src=\\\'http://cruiseweb.com/img/social/icon-pintrest.png\\\' alt="Pintrest" title="Pintrest"></a><a\\n                                                href="https://plus.google.com/112592783437466041024/posts" target="_blank"><img src=\\\'http://cruiseweb.com/img/social/icon-google.png\\\'\\n                                                    alt="Google" title="Google"></a><a href="http://www.youtube.com/user/TheCruiseWeb"\\n                                                        target="_blank"><img src=\\\'http://cruiseweb.com/img/social/icon-youtube.png\\\' alt="YouTube" title="YouTube"></a>\\n                        </p>\\n\\n                        <div id="mainbody-cms-200" class="cms-editable">\\n                            <p>\\n                                Be sure to visit our other media outlets and stay connected with deals and other\\n                    news for cruises.\\n                            </p>\\n                        </div>\\n<div class="clearfix">\\n                        <ul>\\n                            <li><a target="_blank" href="http://cruiseweb.com/blog/"><i class="icon-share"></i> Blog</a></li>\\n                            <li><a href=\\\'http://cruiseweb.com/newsletter/\\\'><i class="icon-share"></i> e-Newsletter</a></li>\\n                        </ul>\\n                        <ul>\\n\\n                            <li><a target="_blank" href=\\\'http://cruiseweb.com/testimonials/\\\'><i class="icon-share"></i> Testimonials</a></li>\\n                        </ul>\\n\\t\\t\\t\\t\\t\\t</div>\\n           <div class="clearfix pb5"> <a href="#" data-target=\\\'/modal-emaildeals.htm\\\' data-toggle="modal" class="btn btn-orange modal-iframe btn-email-block"><strong>Email Deals</strong></a>\\n                        </div>\\n                    </div>\\n\\n                </div>\\n            </div>\\n        </section>\\n        <!-- Footer -->\\n        <footer>\\n            <section class="container">\\n                <div class="row-fluid">\\n                    <div align="center" class="span4 offset4">\\n\\t\\t\\t\\t\\t <a href=\\\'http://cruiseweb.com/\\\'>\\n                        <img src=\\\'http://cruiseweb.com/img/logo-white.png\\\' alt="Cruise Web" title="Cruise Web" style="max-height: 70px;" /></a>\\n                    </div>\\n                </div>\\n                <div class="row-fluid">\\n                    <div class="span6 offset3">\\n                        <h3><strong>The Cruise Web, Inc.</strong></h3>\\n                        <p align="center">\\n                            3901 Calverton Boulevard, Suite 350, Calverton, MD 20705<br />\\n                              Phone: <a href="tel:18003779383">1.800.377.9383</a>  &nbsp; &nbsp;International: <a href="tel:0012404870155">001.240.487.0155</a>  &nbsp; &nbsp; Fax: 1.240.487.0154<br />\\n                        </p>\\n                        <div align="center">\\n                            <iframe style="border: none; padding: 0; margin: 0; background-color: #092367 !important;" name="frmSearch" src=\\\'http://cruiseweb.com/internalsearch.aspx\\\' id="frmSearch" width="200" height="32"></iframe>\\n                        </div>\\n                        <p align="center">\\n                            <a href=\\\'http://cruiseweb.com/terms-conditions/\\\'>Terms &amp; Conditions</a>&nbsp; &nbsp; &nbsp; &nbsp; <a href=\\\'http://cruiseweb.com/privacypolicy/\\\'>Privacy Policy</a>&nbsp; &nbsp; &nbsp; &nbsp; <a href=\\\'http://cruiseweb.com/site-map/\\\'>Site Map</a><br />\\n                            Copyright \\xc2\\xa9 2017                        \\n                        </p>\\n                        <div align="center">\\n                            <a href="#" target="_blank">\\n                                <img src=\\\'http://cruiseweb.com/img/icon-clea.png\\\' alt="CLEA" title="CLEA" /></a> <a href="#" target="_blank">\\n                                    <img src=\\\'http://cruiseweb.com/img/icon-bbb.png\\\' alt="Better Business Bureau" title="Better Business Bureau" /></a>\\n                        </div>\\n                    </div>\\n                </div>\\n                <br />\\n                <br />\\n            </section>\\n        </footer>\\n        \\n        <div id="alertSuccessModal" class="modal hide fade" aria-hidden="true">\\n            <div class="msgalert alert-success">\\n                <a class="close" data-dismiss="modal" href="#">X</a>\\n                <h4 id="successHead"></h4>\\n                <span id="spSuccessMsg"></span>\\n            </div>\\n        </div>\\n        <div id="alertInfoModal" class="modal hide fade" aria-hidden="true">\\n            <div class="msgalert alert-warn">\\n                <a class="close" data-dismiss="modal" href="#">X</a>\\n                <h4 id="infoHead"></h4>\\n                <span id="spInfoMsg"></span>\\n            </div>\\n        </div>\\n        <div id="alertErrModal" class="modal hide fade" aria-hidden="true">\\n            <div class="msgalert alert-error">\\n                <a class="close" data-dismiss="modal" href="#">X</a>\\n                <h4 id="errHead"></h4>\\n                <span id="spErrMsg"></span>\\n            </div>\\n        </div>\\n        <div id="alertWarningModal" class="modal hide fade" aria-hidden="true">\\n            <div class="msgalert alert-warn">\\n                <a class="close" data-dismiss="modal" href="#">X</a>\\n                <h4 id="warningHead"></h4>\\n                <span id="spWarningMsg"></span>\\n                <a href="#" onclick="javascript:showUsernamemodal(2)">\\n                    <i class="icon-heart"></i>\\n                    <br class="visible-phone" />\\n                    Login <span class="hidden-tablet">to\\n                                    <br class="visible-phone" />\\n                        My Cruise Web</span>\\n                    <i class="icon-heart"></i>\\n                </a>\\n            </div>\\n        </div>\\n        <div id="Panel1" style="position: relative;">\\n            <div id="report-loading" class="divModalBackground">\\n                <img src="#" /><br />\\n                <strong>Loading</strong>\\n            </div>     \\n        </div>\\n        <script type="text/javascript">\\n            if (!!(\\\'ontouchstart\\\' in window)) {//check for touch device\\n                $("a#navFindCruise").removeAttr("href");\\n                $(".navigationURL").removeAttr("href");\\n               $("a#navFindCruise").removeAttr("data-hover");\\n                $("a#navFindCruise").click(function (e) {\\n                    $.unblockUI();\\n                    $(\\\'.menu-destports\\\').hide();\\n                    $(\\\'.menu-cruiselines\\\').hide();\\n                    $(\\\'.menu-about\\\').hide();\\n                    $(".menu-contact").hide();\\n                    $(\\\'.menu-deals\\\').hide();\\n                    $(\\\'.menu-search\\\').toggle();\\n                    return false;\\n                });\\n                $(\\\'a#navDeals\\\').click(function (event) {\\n                    $(\\\'.menu-destports\\\').hide();\\n                    $(\\\'.menu-cruiselines\\\').hide();\\n                    $(\\\'.menu-about\\\').hide();\\n                    $(\\\'.menu-search\\\').hide();\\n                    $(".menu-contact").hide();\\n                    $(\\\'.menu-deals\\\').toggle();\\n                });\\n                $(\\\'a#navDestPorts\\\').click(function (event) {\\n                    $(\\\'.menu-deals\\\').hide();\\n                    $(\\\'.menu-cruiselines\\\').hide();\\n                    $(\\\'.menu-about\\\').hide();\\n                    $(\\\'.menu-search\\\').hide();\\n                    $(".menu-contact").hide();\\n                    $(\\\'.menu-destports\\\').toggle();\\n                });\\n                $(\\\'a#navCruiseLines\\\').click(function (event) {\\n                    $(\\\'.menu-destports\\\').hide();\\n                    $(\\\'.menu-deals\\\').hide();\\n                    $(\\\'.menu-about\\\').hide();\\n                   $(\\\'.menu-search\\\').hide();\\n                   $(".menu-contact").hide();\\n                   $(\\\'.menu-cruiselines\\\').toggle();\\n                });\\n                $(\\\'a#navAbout\\\').click(function (event) {\\n                    $(\\\'.menu-cruiselines\\\').hide();\\n                    $(\\\'.menu-destports\\\').hide();\\n                    $(\\\'.menu-deals\\\').hide();\\n                    $(\\\'.menu-search\\\').hide();\\n                    $(".menu-contact").hide();\\n                    $(\\\'.menu-about\\\').toggle();\\n                });\\n                $("a#navContact").click(function (event) {\\n                    $(\\\'.menu-about\\\').hide();\\n                    $(\\\'.menu-cruiselines\\\').hide();\\n                    $(\\\'.menu-destports\\\').hide();\\n                    $(\\\'.menu-deals\\\').hide();\\n                    $(\\\'.menu-search\\\').hide();\\n                    $(".menu-contact").toggle();\\n                });\\n            }\\n            $("#btnEmailDeals").click(function (e) {\\n                $(\\\'html, body\\\').animate({\\n                    scrollTop: $("#txtFirstName").offset().top\\n                }, 2000);\\n                $("#txtFirstName").focus();\\n            });\\n            //To close share box\\n            $(\\\'#at3winheader\\\').on(\\\'click\\\', \\\'a#at3winheaderclose\\\', function () {\\n                // $("a#at3winheaderclose").live(\\\'click\\\', function () {\\n                $("#at3win").css("display", "none");\\n            });\\n            function init() {\\n                var objdiv = document.getElementById("Panel1")\\n                if (objdiv) {\\n                    objdiv.style.visibility = \\\'hidden\\\';\\n                }\\n            }\\n\\n            init();\\n            function showAlert(title, message, flag) {\\n                switch (flag) {\\n                    case 1://Success\\n                        $(\\\'#alertSuccessModal\\\').modal({\\n                            keyboard: true,\\n                            show: false,\\n                        }).on(\\\'show\\\', function () {\\n                        });\\n                        $(\\\'#alertSuccessModal\\\').modal(\\\'show\\\');\\n                        $(\\\'#successHead\\\').text(title);\\n                        $(\\\'#spSuccessMsg\\\').text(message);\\n                        break;\\n                    case 2://Info\\n                        $(\\\'#alertInfoModal\\\').modal({\\n                            keyboard: true,\\n                            show: false,\\n                        }).on(\\\'show\\\', function () {\\n                        });\\n                        $(\\\'#alertInfoModal\\\').modal(\\\'show\\\');\\n                        $(\\\'#infoHead\\\').text(title);\\n                        $(\\\'#spInfoMsg\\\').text(message);\\n                        break;\\n                    case 3://Error\\n                        $(\\\'#alertErrModal\\\').modal({\\n                            keyboard: true,\\n                            show: false,\\n                        }).on(\\\'show\\\', function () {\\n                        });\\n                        $(\\\'#alertErrModal\\\').modal(\\\'show\\\');\\n                        $(\\\'#errHead\\\').text(title);\\n                        $(\\\'#spErrMsg\\\').text(message);\\n                        break;\\n                    case 4://Warning\\n                        $(\\\'#alertWarningModal\\\').modal({\\n                            keyboard: true,\\n                            show: false,\\n                        }).on(\\\'show\\\', function () {\\n                        });\\n                        $(\\\'#alertWarningModal\\\').modal(\\\'show\\\');\\n                        $(\\\'#warningHead\\\').text(title);\\n                        $(\\\'#spWarningMsg\\\').text(message);\\n                        break;\\n                    default:\\n                        break;\\n                }\\n            }\\n        </script>\\n        <!-- Analytics -->\\n        <script type="text/javascript">\\n            (function (i, s, o, g, r, a, m) {\\n                i[\\\'GoogleAnalyticsObject\\\'] = r; i[r] = i[r] || function () {\\n                    (i[r].q = i[r].q || []).push(arguments)\\n                }, i[r].l = 1 * new Date(); a = s.createElement(o),\\n                m = s.getElementsByTagName(o)[0]; a.async = 1; a.src = g; m.parentNode.insertBefore(a, m)\\n            })(window, document, \\\'script\\\', \\\'http://www.google-analytics.com/analytics.js\\\', \\\'ga\\\');\\n            ga(\\\'create\\\', \\\'UA-3016301-2\\\', \\\'cruiseweb.com\\\');\\n            ga(\\\'send\\\', \\\'pageview\\\');\\n        </script>\\n    \\n\\n<script type="text/javascript">\\n//<![CDATA[\\njavascript:ClearSessionValuesOfQuickSearch();//]]>\\n</script>\\n</form>\\n    <!-- What is this? -->\\n    <!-- \\n    <div>\\n        <img src="images/googleBG.PNG" />\\n    </div>\\n    -->\\n    <!-- -->\\n    \\n    <div id="registerModal" class="modal hide fade" aria-hidden="true">\\n        <div class="modal-header">\\n            <div class="clearfix">\\n                <div class="looks-like-h1 pull-left"><strong><span id="spHead"></span></strong></div>\\n                <div class="visible-phone clearfix"></div>\\n                <button class="btn pull-right" data-dismiss="modal">&times;</button>\\n            </div>\\n        </div>\\n        <div class="modal-body">\\n            <form id="frm1" method="post">\\n                <div class="row-fluid">\\n                    <label class="pull-left control-label">Your Email Address</label>\\n                    <input id="txtRegisterUserName" name="RegisterUserName" maxlength="50" required class="span" type="email" placeholder="Email" />\\n                    <button id="btnRegister" name="register" class="btn btn-blue pull-right" type="submit">Submit</button>\\n                    <button class="btn update modal-reset pull-right" onclick="javascript:$(\\\'#txtRegisterUserName\\\').focus();" type="reset">Reset</button>\\n                </div>\\n            </form>\\n        </div>\\n        <div class="modal-footer">\\n        </div>\\n    </div>\\n    <script type="text/javascript">\\n\\n        var spinnerWhite = "<div class=\\\'loading-spinner mod-main fade\\\'><h3>Loading</h3></div>";\\n        function showUsernamemodal(flag) {\\n            $("body").modalmanager({ spinner: spinnerWhite });\\n            $("body").modalmanager("loading");\\n            setTimeout(function () {\\n                if (flag == "1") {\\n                    $("#spHead").text("Register");\\n                } else { $("#spHead").text("Login"); }\\n                $(\\\'#registerModal\\\').modal(\\\'show\\\');\\n            }, 1000);\\n        }\\n        function ClearSessionValues() {\\n            document.getElementById("hdMasterType").value = "";\\n            document.getElementById("hdMasterLines").value = "";\\n            document.getElementById("hdMasterDestination").value = "";\\n            document.getElementById("hdMasterDateRange").value = "";\\n            document.getElementById("hdMasterDateRangeCriteria").value = "";\\n            document.getElementById("hdMasterDealDateRange").value = "";\\n\\n            var clearURL = \\\'/\\\' + "ClearSessionValues.ashx?t=" + Math.random() + "&mode=3";\\n            $.ajax({\\n                type: \\\'POST\\\',\\n                headers: { "cache-control": "no-cache" },\\n\\t\\t\\t\\tcontentType:"application/json; charset=utf-8",\\n                url: clearURL\\n            });\\n        }\\n        function GetSessionValues(flag) {\\n            showBlockPanel();\\n            var JType;\\n            if (document.getElementById("hdMasterType").value != null) {\\n                JType = document.getElementById("hdMasterType").value;\\n            }\\n\\n            var JLines;\\n            if (document.getElementById("hdMasterLines").value != null) {\\n                JLines = document.getElementById("hdMasterLines").value;\\n            }\\n            if (JType.indexOf("all")>=0) {//To  remove all value from url when select all option is selected\\n\\n                JLines = "";\\n                JType = "";\\n            }\\n            var JDestination;\\n            if (document.getElementById("hdMasterDestination").value != null) {\\n                JDestination = document.getElementById("hdMasterDestination").value;\\n            }\\n            if (JDestination.indexOf("all")>=0) {//To remove all value from url when select all option is selected\\n                JDestination = "";\\n            }\\n            var JDateRange;\\n            if (document.getElementById("hdMasterDateRangeCriteria").value != null) {\\n                JDateRange = document.getElementById("hdMasterDateRangeCriteria").value;\\n            }\\n            var JDateRangeCriteria;\\n            if (document.getElementById("hdMasterDateRange").value != null) {\\n                JDateRangeCriteria = document.getElementById("hdMasterDateRange").value;\\n            }\\n            var JDealDateRange;\\n            if (document.getElementById("hdMasterDealDateRange").value != null) {\\n                JDealDateRange = document.getElementById("hdMasterDealDateRange").value;\\n            }\\n            var stringLenght = (JType + JLines + JDestination + JDateRange + JDateRangeCriteria + JDealDateRange).length;\\n            var op = document.getElementById("hdCount").value\\n            var All = "";\\n            if (stringLenght <= op) {\\n                //Index.aspx is removed by samy from this url for not showing it in the url\\n                if (stringLenght == 0) {\\n                    All = "All";\\n                    window.location.href = \\\'/search/\\\' + "?values=" + JType + ":" + JLines + ":" + JDestination + ":" + JDateRangeCriteria + ":" + JDateRange + ":" + JDealDateRange + ":" + All;\\n                }\\n                else {\\n                    All = "CruiseSearch";\\n                    window.location.href = \\\'/search/\\\' + "?values=" + JType + ":" + JLines + ":" + JDestination + ":" + JDateRangeCriteria + ":" + JDateRange + ":" + JDealDateRange + ":" + All;\\n                }\\n                return false;\\n            }\\n            else {\\n                alert(\\\'Max Character Exceeds\\\');\\n                return true;\\n            }\\n            hideBlockPanel();\\n        }\\n    </script>\\n    <script type="text/javascript">\\n        function SendValueToSessionDestination(destName) {\\n            $.ajaxSetup({cache: false});\\n            var sessionURL = \\\'/\\\' + "SendValuesToSession.ashx?t=" + Math.random() + "&destName=" + encodeURI(destName);\\n            $.ajax({\\n                type: \\\'POST\\\',\\n                headers: { "cache-control": "no-cache" },\\n\\t\\t\\t\\tcontentType:"application/json; charset=utf-8",\\n                url: sessionURL,\\n                cache: false\\n            });\\n        }\\n        //to scroll to top of the page            \\n        $(window).scroll(function () {\\n            if ($(this).scrollTop() != 0) {\\n                $(\\\'#backtotop\\\').fadeIn();\\n            } else {\\n                $(\\\'#backtotop\\\').fadeOut();\\n            }\\n        });\\n        $(\\\'#backtotop\\\').click(function () {\\n            $(\\\'body,html\\\').animate({ scrollTop: 0 }, 800);\\n        });\\n        $body = $("body");\\n        $(document).ajaxStop($.unblockUI);\\n        //Index.aspx is removed by samy from this url for not showing it in the url\\n        $(\\\'a[href=\\\\\\\'/search/\\\\\\\']\\\').click(function () { showBlockPanel(); });\\n\\n    </script>\\n    <div class="modaltemp"></div>\\n    <div id="domMessage" class="modaltemp">\\n    </div>\\n\\t<script type="text/javascript">\\npiAId = \\\'305141\\\';\\npiCId = \\\'1289\\\';\\n\\n(function() {\\n\\tfunction async_load(){\\n\\t\\tvar s = document.createElement(\\\'script\\\'); s.type = \\\'text/javascript\\\';\\n\\t\\ts.src = (\\\'https:\\\' == document.location.protocol ? \\\'https://pi\\\' : \\\'http://cdn\\\') + \\\'.pardot.com/pd.js\\\';\\n\\t\\tvar c = document.getElementsByTagName(\\\'script\\\')[0]; c.parentNode.insertBefore(s, c);\\n\\t}\\n\\tif(window.attachEvent) { window.attachEvent(\\\'onload\\\', async_load); }\\n\\telse { window.addEventListener(\\\'load\\\', async_load, false); }\\n})();\\n</script>\\n</body>\\n\\n<!-- Mirrored from cruiseweb.com/ by HTTrack Website Copier/3.x [XR&CO\\\'2014], Mon, 08 May 2017 12:21:40 GMT -->\\n</html>\\n\', escape=False)'
p7
sS'snapshot'
p8
(dp9
S'exception'
p10
(dp11
S'__module__'
p12
S"'gluon.rocket'"
p13
sS'__getslice__'
p14
S"<method-wrapper '__getslice__' of SocketClosed object>"
p15
sS'__str__'
p16
S"<method-wrapper '__str__' of SocketClosed object>"
p17
sS'__reduce__'
p18
S'<built-in method __reduce__ of SocketClosed object>'
p19
sS'__dict__'
p20
S'{}'
p21
sS'__sizeof__'
p22
S'<built-in method __sizeof__ of SocketClosed object>'
p23
sS'__weakref__'
p24
S'None'
p25
sS'__init__'
p26
S"<method-wrapper '__init__' of SocketClosed object>"
p27
sS'__setattr__'
p28
S"<method-wrapper '__setattr__' of SocketClosed object>"
p29
sS'__reduce_ex__'
p30
S'<built-in method __reduce_ex__ of SocketClosed object>'
p31
sS'__new__'
p32
S'<built-in method __new__ of type object>'
p33
sS'__format__'
p34
S'<built-in method __format__ of SocketClosed object>'
p35
sS'__class__'
p36
S"<class 'gluon.rocket.SocketClosed'>"
p37
sS'__doc__'
p38
S"'Exception for when a socket is closed by the client.'"
p39
sS'__getitem__'
p40
S"<method-wrapper '__getitem__' of SocketClosed object>"
p41
sS'__setstate__'
p42
S'<built-in method __setstate__ of SocketClosed object>'
p43
sS'__getattribute__'
p44
S"<method-wrapper '__getattribute__' of SocketClosed object>"
p45
sS'args'
p46
S"('Client closed socket.',)"
p47
sS'__subclasshook__'
p48
S'<built-in method __subclasshook__ of type object>'
p49
sS'__unicode__'
p50
S'<built-in method __unicode__ of SocketClosed object>'
p51
sS'__delattr__'
p52
S"<method-wrapper '__delattr__' of SocketClosed object>"
p53
sS'__repr__'
p54
S"<method-wrapper '__repr__' of SocketClosed object>"
p55
sS'__hash__'
p56
S"<method-wrapper '__hash__' of SocketClosed object>"
p57
ssS'evalue'
p58
S'Client closed socket.'
p59
sS'frames'
p60
(lp61
(dp62
S'file'
p63
S'/home/diablo/Documents/CruiseShipWebsiteDbProject/web2py/gluon/rocket.py'
p64
sS'dump'
p65
(dp66
S'self'
p67
S'<WSGIWorker(Thread-9, started daemon 139795808380672)>'
p68
sS'conn'
p69
S'<gluon.rocket.Connection object>'
p70
sS'self.run_app'
p71
S'<bound method WSGIWorker.run_app of <WSGIWorker(Thread-9, started daemon 139795808380672)>>'
p72
ssS'lnum'
p73
I1337
sS'lines'
p74
(dp75
I1332
S'            # Enter connection serve loop'
p76
sI1333
S'            while True:'
p77
sI1334
S'                if __debug__:'
p78
sI1335
S"                    self.err_log.debug('Serving a request')"
p79
sI1336
S'                try:'
p80
sI1337
S'                    self.run_app(conn)'
p81
sI1338
S'                except:'
p82
sI1339
S'                    exc = sys.exc_info()'
p83
sI1340
S'                    handled = self._handleError(*exc)'
p84
sI1341
S'                    if handled:'
p85
ssS'call'
p86
S'(self=<WSGIWorker(Thread-9, started daemon 139795808380672)>)'
p87
sS'func'
p88
S'run'
p89
sa(dp90
g63
S'/home/diablo/Documents/CruiseShipWebsiteDbProject/web2py/gluon/rocket.py'
p91
sg65
(dp92
S'self'
p93
S'<WSGIWorker(Thread-9, started daemon 139795808380672)>'
p94
sS'self.environ'
p95
S"{'HTTP_ACCEPT': 'text/html,application/xhtml+xml,application/xml;q=0.9,*/*;q=0.8', 'HTTP_ACCEPT_ENCODING': 'gzip, deflate', 'HTTP_ACCEPT_LANGUAGE': 'en-US,en;q=0.5', 'HTTP_CONNECTION': 'keep-alive', 'HTTP_COOKIE': '_aeu=QCQ=; __utma=96992031.973890748.1494422915....be-9978-07237e9b15fa; __atuvs=591f17c505495a15003', 'HTTP_HOST': '127.0.0.1:8000', 'HTTP_REFERER': 'http://127.0.0.1:8000/admin/default/site', 'HTTP_UPGRADE_INSECURE_REQUESTS': '1', 'HTTP_USER_AGENT': 'Mozilla/5.0 (X11; Ubuntu; Linux x86_64; rv:53.0) Gecko/20100101 Firefox/53.0', 'PATH_INFO': '/Cruisership/default/index', ...}"
p96
sS'sock_file'
p97
S'<socket._fileobject object>'
p98
sS'environ'
p99
S'undefined'
p100
sS'self.build_environ'
p101
S'<bound method WSGIWorker.build_environ of <WSGIWorker(Thread-9, started daemon 139795808380672)>>'
p102
sS'conn'
p103
S'<gluon.rocket.Connection object>'
p104
ssg73
I1830
sg74
(dp105
I1825
S'        else:'
p106
sI1826
S'            sock_file = conn.makefile(BUF_SIZE)'
p107
sI1827
S''
sI1828
S'        try:'
p108
sI1829
S'            # Read the headers and build our WSGI environment'
p109
sI1830
S'            self.environ = environ = self.build_environ(sock_file, conn)'
p110
sI1831
S''
sI1832
S'            # Handle 100 Continue'
p111
sI1833
S"            if environ.get('HTTP_EXPECT', '') == '100-continue':"
p112
sI1834
S"                res = environ['SERVER_PROTOCOL'] + ' 100 Continue\\r\\n\\r\\n'"
p113
ssg86
S'(self=<WSGIWorker(Thread-9, started daemon 139795808380672)>, conn=<gluon.rocket.Connection object>)'
p114
sg88
S'run_app'
p115
sa(dp116
g63
S'/home/diablo/Documents/CruiseShipWebsiteDbProject/web2py/gluon/rocket.py'
p117
sg65
(dp118
S'sock_file'
p119
S'<socket._fileobject object>'
p120
sS'self.read_request_line'
p121
S'<bound method WSGIWorker.read_request_line of <W...orker(Thread-9, started daemon 139795808380672)>>'
p122
sS'self'
p123
S'<WSGIWorker(Thread-9, started daemon 139795808380672)>'
p124
sS'request'
p125
g100
ssg73
I1650
sg74
(dp126
I1645
S'                                      "wsgiorg.futures": executor.futures})'
p127
sI1646
S''
sI1647
S'    def build_environ(self, sock_file, conn):'
p128
sI1648
S'        """ Build the execution environment. """'
p129
sI1649
S'        # Grab the request line'
p130
sI1650
S'        request = self.read_request_line(sock_file)'
p131
sI1651
S''
sI1652
S'        # Copy the Base Environment'
p132
sI1653
S'        environ = self.base_environ.copy()'
p133
sI1654
S''
ssg86
S'(self=<WSGIWorker(Thread-9, started daemon 139795808380672)>, sock_file=<socket._fileobject object>, conn=<gluon.rocket.Connection object>)'
p134
sg88
S'build_environ'
p135
sa(dp136
g63
S'/home/diablo/Documents/CruiseShipWebsiteDbProject/web2py/gluon/rocket.py'
p137
sg65
(dp138
S'global SocketClosed'
p139
S"<class 'gluon.rocket.SocketClosed'>"
p140
ssg73
I1413
sg74
(dp141
I1408
S''
sI1409
S'        if not d:'
p142
sI1410
S'            if __debug__:'
p143
sI1411
S'                self.err_log.debug('
p144
sI1412
S"                    'Client did not send a recognizable request.')"
p145
sI1413
S"            raise SocketClosed('Client closed socket.')"
p146
sI1414
S''
sI1415
S'        self.request_line = d'
p147
sI1416
S''
sI1417
S"        # NOTE: I've replaced the traditional method of procedurally breaking"
p148
ssg86
S'(self=<WSGIWorker(Thread-9, started daemon 139795808380672)>, sock_file=<socket._fileobject object>)'
p149
sg88
S'read_request_line'
p150
sasS'pyver'
p151
S'Python 2.7.12: /usr/bin/python (prefix: /usr)'
p152
sS'etype'
p153
S"<class 'gluon.rocket.SocketClosed'>"
p154
sS'date'
p155
S'Fri May 19 19:21:52 2017'
p156
sS'locals'
p157
(dp158
S'sock_file'
p159
S'<socket._fileobject object>'
p160
sS'self'
p161
S'<WSGIWorker(Thread-9, started daemon 139795808380672)>'
p162
sS'd'
S"''"
p163
sssS'traceback'
p164
S'Traceback (most recent call last):\n  File "/home/diablo/Documents/CruiseShipWebsiteDbProject/web2py/gluon/rocket.py", line 1337, in run\n    self.run_app(conn)\n  File "/home/diablo/Documents/CruiseShipWebsiteDbProject/web2py/gluon/rocket.py", line 1830, in run_app\n    self.environ = environ = self.build_environ(sock_file, conn)\n  File "/home/diablo/Documents/CruiseShipWebsiteDbProject/web2py/gluon/rocket.py", line 1650, in build_environ\n    request = self.read_request_line(sock_file)\n  File "/home/diablo/Documents/CruiseShipWebsiteDbProject/web2py/gluon/rocket.py", line 1413, in read_request_line\n    raise SocketClosed(\'Client closed socket.\')\nSocketClosed: Client closed socket.\n'
p165
s.